target datalayout = "e-m:e-p270:32:32-p271:32:32-p272:64:64-i64:64-i128:128-f80:128-n8:16:32:64-S128"
target triple = "x86_64-pc-linux-gnu"

@Wlc_PrsStrtok.last = internal global ptr null, align 8

; Function Attrs: nounwind uwtable
define ptr @Wlc_PrsStrtok(ptr noundef %0, ptr noundef %1) #0 {
  %3 = alloca ptr, align 8
  %4 = alloca ptr, align 8
  %5 = alloca ptr, align 8
  %6 = alloca ptr, align 8
  %7 = alloca i32, align 4
  %8 = alloca i32, align 4
  %9 = alloca ptr, align 8
  store ptr %0, ptr %4, align 8
  store ptr %1, ptr %5, align 8
  %10 = load ptr, ptr %4, align 8
  %11 = icmp eq ptr %10, null
  br i1 %11, label %12, label %16

12:                                               ; preds = %2
  %13 = load ptr, ptr @Wlc_PrsStrtok.last, align 8
  store ptr %13, ptr %4, align 8
  %14 = icmp eq ptr %13, null
  br i1 %14, label %15, label %16

15:                                               ; preds = %12
  store ptr null, ptr %3, align 8
  br label %96

16:                                               ; preds = %12, %2
  br label %17

17:                                               ; preds = %33, %16
  %18 = load ptr, ptr %4, align 8
  %19 = getelementptr inbounds i8, ptr %18, i32 1
  store ptr %19, ptr %4, align 8
  %20 = load i8, ptr %18, align 1
  %21 = sext i8 %20 to i32
  store i32 %21, ptr %7, align 4
  %22 = load ptr, ptr %5, align 8
  store ptr %22, ptr %6, align 8
  br label %23

23:                                               ; preds = %34, %17
  %24 = load ptr, ptr %6, align 8
  %25 = getelementptr inbounds i8, ptr %24, i32 1
  store ptr %25, ptr %6, align 8
  %26 = load i8, ptr %24, align 1
  %27 = sext i8 %26 to i32
  store i32 %27, ptr %8, align 4
  %28 = icmp ne i32 %27, 0
  br i1 %28, label %29, label %35

29:                                               ; preds = %23
  %30 = load i32, ptr %7, align 4
  %31 = load i32, ptr %8, align 4
  %32 = icmp eq i32 %30, %31
  br i1 %32, label %33, label %34

33:                                               ; preds = %29
  br label %17

34:                                               ; preds = %29
  br label %23, !llvm.loop !20

35:                                               ; preds = %23
  %36 = load i32, ptr %7, align 4
  %37 = icmp eq i32 %36, 0
  br i1 %37, label %38, label %39

38:                                               ; preds = %35
  store ptr null, ptr @Wlc_PrsStrtok.last, align 8
  store ptr null, ptr %3, align 8
  br label %96

39:                                               ; preds = %35
  %40 = load i32, ptr %7, align 4
  %41 = icmp ne i32 %40, 92
  br i1 %41, label %42, label %45

42:                                               ; preds = %39
  %43 = load ptr, ptr %4, align 8
  %44 = getelementptr inbounds i8, ptr %43, i64 -1
  store ptr %44, ptr %9, align 8
  br label %48

45:                                               ; preds = %39
  %46 = load ptr, ptr %4, align 8
  %47 = getelementptr inbounds i8, ptr %46, i64 -1
  store ptr %47, ptr %9, align 8
  br label %48

48:                                               ; preds = %45, %42
  %49 = load ptr, ptr %4, align 8
  %50 = getelementptr inbounds i8, ptr %49, i32 -1
  store ptr %50, ptr %4, align 8
  br label %51

51:                                               ; preds = %95, %48
  %52 = load ptr, ptr %4, align 8
  %53 = getelementptr inbounds i8, ptr %52, i32 1
  store ptr %53, ptr %4, align 8
  %54 = load i8, ptr %52, align 1
  %55 = sext i8 %54 to i32
  store i32 %55, ptr %7, align 4
  %56 = load i32, ptr %7, align 4
  %57 = icmp eq i32 %56, 92
  br i1 %57, label %58, label %72

58:                                               ; preds = %51
  br label %59

59:                                               ; preds = %62, %58
  %60 = load i32, ptr %7, align 4
  %61 = icmp ne i32 %60, 32
  br i1 %61, label %62, label %67

62:                                               ; preds = %59
  %63 = load ptr, ptr %4, align 8
  %64 = getelementptr inbounds i8, ptr %63, i32 1
  store ptr %64, ptr %4, align 8
  %65 = load i8, ptr %63, align 1
  %66 = sext i8 %65 to i32
  store i32 %66, ptr %7, align 4
  br label %59, !llvm.loop !21

67:                                               ; preds = %59
  %68 = load ptr, ptr %4, align 8
  %69 = getelementptr inbounds i8, ptr %68, i32 1
  store ptr %69, ptr %4, align 8
  %70 = load i8, ptr %68, align 1
  %71 = sext i8 %70 to i32
  store i32 %71, ptr %7, align 4
  br label %72

72:                                               ; preds = %67, %51
  %73 = load ptr, ptr %5, align 8
  store ptr %73, ptr %6, align 8
  br label %74

74:                                               ; preds = %92, %72
  %75 = load ptr, ptr %6, align 8
  %76 = getelementptr inbounds i8, ptr %75, i32 1
  store ptr %76, ptr %6, align 8
  %77 = load i8, ptr %75, align 1
  %78 = sext i8 %77 to i32
  store i32 %78, ptr %8, align 4
  %79 = load i32, ptr %7, align 4
  %80 = icmp eq i32 %78, %79
  br i1 %80, label %81, label %91

81:                                               ; preds = %74
  %82 = load i32, ptr %7, align 4
  %83 = icmp eq i32 %82, 0
  br i1 %83, label %84, label %85

84:                                               ; preds = %81
  store ptr null, ptr %4, align 8
  br label %88

85:                                               ; preds = %81
  %86 = load ptr, ptr %4, align 8
  %87 = getelementptr inbounds i8, ptr %86, i64 -1
  store i8 0, ptr %87, align 1
  br label %88

88:                                               ; preds = %85, %84
  %89 = load ptr, ptr %4, align 8
  store ptr %89, ptr @Wlc_PrsStrtok.last, align 8
  %90 = load ptr, ptr %9, align 8
  store ptr %90, ptr %3, align 8
  br label %96

91:                                               ; preds = %74
  br label %92

92:                                               ; preds = %91
  %93 = load i32, ptr %8, align 4
  %94 = icmp ne i32 %93, 0
  br i1 %94, label %74, label %95, !llvm.loop !22

95:                                               ; preds = %92
  br label %51

96:                                               ; preds = %88, %38, %15
  %97 = load ptr, ptr %3, align 8
  ret ptr %97
}