; Function Attrs: nofree norecurse nosync nounwind memory(readwrite, inaccessiblemem: none) uwtable
define noundef ptr @Wlc_PrsStrtok(ptr noundef %0, ptr noundef readonly captures(none) %1) local_unnamed_addr #11 {
  %3 = icmp eq ptr %0, null
  br i1 %3, label %4, label %.preheader46

4:                                                ; preds = %2
  %5 = load ptr, ptr @Wlc_PrsStrtok.last, align 8
  %6 = icmp eq ptr %5, null
  br i1 %6, label %34, label %.preheader46

.preheader46:                                     ; preds = %4, %2
  %.129.ph = phi ptr [ %0, %2 ], [ %5, %4 ]
  br label %7

.loopexit41:                                      ; preds = %12
  br label %7, !llvm.loop !14

7:                                                ; preds = %.preheader46, %.loopexit41
  %.129 = phi ptr [ %8, %.loopexit41 ], [ %.129.ph, %.preheader46 ]
  %8 = getelementptr inbounds nuw i8, ptr %.129, i64 1
  %9 = load i8, ptr %.129, align 1
  br label %10

10:                                               ; preds = %12, %7
  %.025 = phi ptr [ %1, %7 ], [ %13, %12 ]
  %11 = load i8, ptr %.025, align 1
  %.not = icmp eq i8 %11, 0
  br i1 %.not, label %15, label %12

12:                                               ; preds = %10
  %13 = getelementptr inbounds nuw i8, ptr %.025, i64 1
  %14 = icmp eq i8 %9, %11
  br i1 %14, label %.loopexit41, label %10, !llvm.loop !14

15:                                               ; preds = %10
  %cond = icmp eq i8 %9, 0
  br i1 %cond, label %.sink.split, label %.preheader40

.loopexit:                                        ; preds = %32
  %.pre = load i8, ptr %.3, align 1
  br label %.preheader40, !llvm.loop !15

.preheader40:                                     ; preds = %15, %.loopexit
  %16 = phi i8 [ %.pre, %.loopexit ], [ %9, %15 ]
  %.2 = phi ptr [ %.3, %.loopexit ], [ %.129, %15 ]
  %17 = getelementptr inbounds nuw i8, ptr %.2, i64 1
  %18 = icmp eq i8 %16, 92
  br i1 %18, label %.preheader, label %24

.preheader:                                       ; preds = %.preheader40, %.preheader
  %.442 = phi ptr [ %19, %.preheader ], [ %17, %.preheader40 ]
  %19 = getelementptr inbounds nuw i8, ptr %.442, i64 1
  %20 = load i8, ptr %.442, align 1
  %.not38 = icmp eq i8 %20, 32
  br i1 %.not38, label %21, label %.preheader, !llvm.loop !16

21:                                               ; preds = %.preheader
  %22 = getelementptr inbounds nuw i8, ptr %.442, i64 2
  %23 = load i8, ptr %19, align 1
  br label %24

24:                                               ; preds = %21, %.preheader40
  %.3 = phi ptr [ %22, %21 ], [ %17, %.preheader40 ]
  %.024.in = phi i8 [ %23, %21 ], [ %16, %.preheader40 ]
  br label %25

25:                                               ; preds = %32, %24
  %.126 = phi ptr [ %1, %24 ], [ %33, %32 ]
  %26 = load i8, ptr %.126, align 1
  %27 = icmp eq i8 %26, %.024.in
  br i1 %27, label %28, label %32

28:                                               ; preds = %25
  %29 = icmp eq i8 %.024.in, 0
  br i1 %29, label %.sink.split, label %30

30:                                               ; preds = %28
  %31 = getelementptr inbounds i8, ptr %.3, i64 -1
  store i8 0, ptr %31, align 1
  br label %.sink.split

32:                                               ; preds = %25
  %33 = getelementptr inbounds nuw i8, ptr %.126, i64 1
  %.not39 = icmp eq i8 %26, 0
  br i1 %.not39, label %.loopexit, label %25, !llvm.loop !15

.sink.split:                                      ; preds = %30, %28, %15
  %.5.sink = phi ptr [ null, %15 ], [ %.3, %30 ], [ null, %28 ]
  %.027.ph = phi ptr [ null, %15 ], [ %.129, %30 ], [ %.129, %28 ]
  store ptr %.5.sink, ptr @Wlc_PrsStrtok.last, align 8
  br label %34

34:                                               ; preds = %.sink.split, %4
  %.027 = phi ptr [ null, %4 ], [ %.027.ph, %.sink.split ]
  ret ptr %.027
}